target datalayout = "e-m:e-p270:32:32-p271:32:32-p272:64:64-i64:64-i128:128-f80:128-n8:16:32:64-S128"
target triple = "x86_64-pc-linux-gnu"

%struct.persist_msg_t = type { ptr, ptr, i16 }
%struct.persist_rc_msg_t = type { ptr, i16, i32, i16 }

@plugin_type = dso_local constant [28 x i8] c"accounting_storage/slurmdbd\00", align 16
@.str.7 = private unnamed_addr constant [3 x i8] c"%s\00", align 1
@.str.24 = private unnamed_addr constant [11 x i8] c"%s: %s: %s\00", align 1
@.str.82 = private unnamed_addr constant [29 x i8] c"DBD_ARCHIVE_LOAD failure: %s\00", align 1
@__func__.jobacct_storage_p_archive_load = private unnamed_addr constant [31 x i8] c"jobacct_storage_p_archive_load\00", align 1
@.str.83 = private unnamed_addr constant [49 x i8] c"unknown return msg_type for archive_load: %s(%u)\00", align 1

; Function Attrs: nounwind uwtable
define dso_local i32 @jobacct_storage_p_archive_load(ptr noundef %0, ptr noundef %1) #0 {
  %3 = alloca ptr, align 8
  %4 = alloca ptr, align 8
  %5 = alloca %struct.persist_msg_t, align 8
  %6 = alloca %struct.persist_msg_t, align 8
  %7 = alloca i32, align 4
  %8 = alloca ptr, align 8
  store ptr %0, ptr %3, align 8
  store ptr %1, ptr %4, align 8
  call void @llvm.lifetime.start.p0(i64 24, ptr %5) #9
  call void @llvm.memset.p0.i64(ptr align 8 %5, i8 0, i64 24, i1 false)
  call void @llvm.lifetime.start.p0(i64 24, ptr %6) #9
  call void @llvm.memset.p0.i64(ptr align 8 %6, i8 0, i64 24, i1 false)
  call void @llvm.lifetime.start.p0(i64 4, ptr %7) #9
  store i32 0, ptr %7, align 4
  %9 = getelementptr inbounds nuw %struct.persist_msg_t, ptr %5, i32 0, i32 2
  store i16 1460, ptr %9, align 8
  %10 = load ptr, ptr %3, align 8
  %11 = getelementptr inbounds nuw %struct.persist_msg_t, ptr %5, i32 0, i32 0
  store ptr %10, ptr %11, align 8
  %12 = load ptr, ptr %4, align 8
  %13 = getelementptr inbounds nuw %struct.persist_msg_t, ptr %5, i32 0, i32 1
  store ptr %12, ptr %13, align 8
  %14 = call i32 @dbd_conn_send_recv(i16 noundef zeroext 11008, ptr noundef %5, ptr noundef %6)
  store i32 %14, ptr %7, align 4
  %15 = load i32, ptr %7, align 4
  %16 = icmp ne i32 %15, 0
  br i1 %16, label %17, label %21

17:                                               ; preds = %2
  %18 = load i32, ptr %7, align 4
  %19 = call ptr @slurm_strerror(i32 noundef %18)
  %20 = call i32 (ptr, ...) @slurm_error(ptr noundef @.str.82, ptr noundef %19)
  br label %70

21:                                               ; preds = %2
  %22 = getelementptr inbounds nuw %struct.persist_msg_t, ptr %6, i32 0, i32 2
  %23 = load i16, ptr %22, align 8
  %24 = zext i16 %23 to i32
  %25 = icmp eq i32 %24, 1433
  br i1 %25, label %26, label %61

26:                                               ; preds = %21
  call void @llvm.lifetime.start.p0(i64 8, ptr %8) #9
  %27 = getelementptr inbounds nuw %struct.persist_msg_t, ptr %6, i32 0, i32 1
  %28 = load ptr, ptr %27, align 8
  store ptr %28, ptr %8, align 8
  %29 = load ptr, ptr %8, align 8
  %30 = getelementptr inbounds nuw %struct.persist_rc_msg_t, ptr %29, i32 0, i32 2
  %31 = load i32, ptr %30, align 4
  store i32 %31, ptr %7, align 4
  %32 = load ptr, ptr %8, align 8
  %33 = getelementptr inbounds nuw %struct.persist_rc_msg_t, ptr %32, i32 0, i32 2
  %34 = load i32, ptr %33, align 4
  %35 = icmp eq i32 %34, 0
  br i1 %35, label %36, label %50

36:                                               ; preds = %26
  br label %37

37:                                               ; preds = %36
  br label %38

38:                                               ; preds = %37
  %39 = call i32 @slurm_get_log_level()
  %40 = icmp sge i32 %39, 3
  br i1 %40, label %41, label %45

41:                                               ; preds = %38
  %42 = load ptr, ptr %8, align 8
  %43 = getelementptr inbounds nuw %struct.persist_rc_msg_t, ptr %42, i32 0, i32 0
  %44 = load ptr, ptr %43, align 8
  call void (i32, ptr, ...) @slurm_log_var(i32 noundef 3, ptr noundef @.str.24, ptr noundef @plugin_type, ptr noundef @__func__.jobacct_storage_p_archive_load, ptr noundef %44)
  br label %45

45:                                               ; preds = %41, %38
  br label %46

46:                                               ; preds = %45
  br label %47

47:                                               ; preds = %46
  br label %48

48:                                               ; preds = %47
  br label %49

49:                                               ; preds = %48
  br label %59

50:                                               ; preds = %26
  %51 = load ptr, ptr %8, align 8
  %52 = getelementptr inbounds nuw %struct.persist_rc_msg_t, ptr %51, i32 0, i32 2
  %53 = load i32, ptr %52, align 4
  %54 = call ptr @__errno_location() #10
  store i32 %53, ptr %54, align 4
  %55 = load ptr, ptr %8, align 8
  %56 = getelementptr inbounds nuw %struct.persist_rc_msg_t, ptr %55, i32 0, i32 0
  %57 = load ptr, ptr %56, align 8
  %58 = call i32 (ptr, ...) @slurm_error(ptr noundef @.str.7, ptr noundef %57)
  br label %59

59:                                               ; preds = %50, %49
  %60 = load ptr, ptr %8, align 8
  call void @slurm_persist_free_rc_msg(ptr noundef %60)
  call void @llvm.lifetime.end.p0(i64 8, ptr %8) #9
  br label %69

61:                                               ; preds = %21
  %62 = getelementptr inbounds nuw %struct.persist_msg_t, ptr %6, i32 0, i32 2
  %63 = load i16, ptr %62, align 8
  %64 = call ptr @rpc_num2string(i16 noundef zeroext %63)
  %65 = getelementptr inbounds nuw %struct.persist_msg_t, ptr %6, i32 0, i32 2
  %66 = load i16, ptr %65, align 8
  %67 = zext i16 %66 to i32
  %68 = call i32 (ptr, ...) @slurm_error(ptr noundef @.str.83, ptr noundef %64, i32 noundef %67)
  store i32 -1, ptr %7, align 4
  br label %69

69:                                               ; preds = %61, %59
  br label %70

70:                                               ; preds = %69, %17
  %71 = load i32, ptr %7, align 4
  call void @llvm.lifetime.end.p0(i64 4, ptr %7) #9
  call void @llvm.lifetime.end.p0(i64 24, ptr %6) #9
  call void @llvm.lifetime.end.p0(i64 24, ptr %5) #9
  ret i32 %71
}